target datalayout = "e-m:e-p270:32:32-p271:32:32-p272:64:64-i64:64-i128:128-f80:128-n8:16:32:64-S128"
target triple = "x86_64-pc-linux-gnu"

%struct.tng_trajectory = type { ptr, ptr, i64, ptr, ptr, ptr, ptr, ptr, ptr, i8, i8, ptr, ptr, ptr, ptr, ptr, ptr, ptr, ptr, ptr, i64, i64, i8, i64, i64, i64, double, i64, ptr, ptr, i64, i64, i64, i64, i64, %struct.tng_trajectory_frame_set, i64, i64, i64, i32, ptr, i32, ptr, ptr, ptr, double }
%struct.tng_trajectory_frame_set = type { i64, ptr, i64, i64, i64, i64, ptr, i64, i64, i64, i64, i64, i64, i64, double, i32, ptr, i32, ptr }

@stderr = external global ptr, align 8
@.str.1 = private unnamed_addr constant [130 x i8] c"generated/home/dtcxzyw/WorkSpace/Projects/compilers/llvm-opt-benchmark/bench/gromacs/gromacs/src/external/tng_io/src/lib/tng_io.c\00", align 1
@.str.13 = private unnamed_addr constant [42 x i8] c"TNG library: Cannot open file %s. %s: %d\0A\00", align 1
@.str.54 = private unnamed_addr constant [52 x i8] c"TNG library: No file specified for reading. %s: %d\0A\00", align 1
@.str.55 = private unnamed_addr constant [3 x i8] c"rb\00", align 1

; Function Attrs: nounwind uwtable
define internal i32 @tng_input_file_init(ptr noundef %0) #0 {
  %2 = alloca i32, align 4
  %3 = alloca ptr, align 8
  %4 = alloca i64, align 8
  %5 = alloca i32, align 4
  store ptr %0, ptr %3, align 8, !tbaa !3
  call void @llvm.lifetime.start.p0(i64 8, ptr %4) #11
  %6 = load ptr, ptr %3, align 8, !tbaa !3
  %7 = getelementptr inbounds nuw %struct.tng_trajectory, ptr %6, i32 0, i32 1
  %8 = load ptr, ptr %7, align 8, !tbaa !136
  %9 = icmp ne ptr %8, null
  br i1 %9, label %36, label %10

10:                                               ; preds = %1
  %11 = load ptr, ptr %3, align 8, !tbaa !3
  %12 = getelementptr inbounds nuw %struct.tng_trajectory, ptr %11, i32 0, i32 0
  %13 = load ptr, ptr %12, align 8, !tbaa !135
  %14 = icmp ne ptr %13, null
  br i1 %14, label %18, label %15

15:                                               ; preds = %10
  %16 = load ptr, ptr @stderr, align 8, !tbaa !24
  %17 = call i32 (ptr, ptr, ...) @fprintf(ptr noundef %16, ptr noundef @.str.54, ptr noundef @.str.1, i32 noundef 875) #11
  store i32 2, ptr %2, align 4
  store i32 1, ptr %5, align 4
  br label %62

18:                                               ; preds = %10
  %19 = load ptr, ptr %3, align 8, !tbaa !3
  %20 = getelementptr inbounds nuw %struct.tng_trajectory, ptr %19, i32 0, i32 0
  %21 = load ptr, ptr %20, align 8, !tbaa !135
  %22 = call noalias ptr @fopen64(ptr noundef %21, ptr noundef @.str.55)
  %23 = load ptr, ptr %3, align 8, !tbaa !3
  %24 = getelementptr inbounds nuw %struct.tng_trajectory, ptr %23, i32 0, i32 1
  store ptr %22, ptr %24, align 8, !tbaa !136
  %25 = load ptr, ptr %3, align 8, !tbaa !3
  %26 = getelementptr inbounds nuw %struct.tng_trajectory, ptr %25, i32 0, i32 1
  %27 = load ptr, ptr %26, align 8, !tbaa !136
  %28 = icmp ne ptr %27, null
  br i1 %28, label %35, label %29

29:                                               ; preds = %18
  %30 = load ptr, ptr @stderr, align 8, !tbaa !24
  %31 = load ptr, ptr %3, align 8, !tbaa !3
  %32 = getelementptr inbounds nuw %struct.tng_trajectory, ptr %31, i32 0, i32 0
  %33 = load ptr, ptr %32, align 8, !tbaa !135
  %34 = call i32 (ptr, ptr, ...) @fprintf(ptr noundef %30, ptr noundef @.str.13, ptr noundef %33, ptr noundef @.str.1, i32 noundef 882) #11
  store i32 2, ptr %2, align 4
  store i32 1, ptr %5, align 4
  br label %62

35:                                               ; preds = %18
  br label %36

36:                                               ; preds = %35, %1
  %37 = load ptr, ptr %3, align 8, !tbaa !3
  %38 = getelementptr inbounds nuw %struct.tng_trajectory, ptr %37, i32 0, i32 2
  %39 = load i64, ptr %38, align 8, !tbaa !137
  %40 = icmp ne i64 %39, 0
  br i1 %40, label %61, label %41

41:                                               ; preds = %36
  %42 = load ptr, ptr %3, align 8, !tbaa !3
  %43 = getelementptr inbounds nuw %struct.tng_trajectory, ptr %42, i32 0, i32 1
  %44 = load ptr, ptr %43, align 8, !tbaa !136
  %45 = call i64 @ftello64(ptr noundef %44)
  store i64 %45, ptr %4, align 8, !tbaa !26
  %46 = load ptr, ptr %3, align 8, !tbaa !3
  %47 = getelementptr inbounds nuw %struct.tng_trajectory, ptr %46, i32 0, i32 1
  %48 = load ptr, ptr %47, align 8, !tbaa !136
  %49 = call i32 @fseeko64(ptr noundef %48, i64 noundef 0, i32 noundef 2)
  %50 = load ptr, ptr %3, align 8, !tbaa !3
  %51 = getelementptr inbounds nuw %struct.tng_trajectory, ptr %50, i32 0, i32 1
  %52 = load ptr, ptr %51, align 8, !tbaa !136
  %53 = call i64 @ftello64(ptr noundef %52)
  %54 = load ptr, ptr %3, align 8, !tbaa !3
  %55 = getelementptr inbounds nuw %struct.tng_trajectory, ptr %54, i32 0, i32 2
  store i64 %53, ptr %55, align 8, !tbaa !137
  %56 = load ptr, ptr %3, align 8, !tbaa !3
  %57 = getelementptr inbounds nuw %struct.tng_trajectory, ptr %56, i32 0, i32 1
  %58 = load ptr, ptr %57, align 8, !tbaa !136
  %59 = load i64, ptr %4, align 8, !tbaa !26
  %60 = call i32 @fseeko64(ptr noundef %58, i64 noundef %59, i32 noundef 0)
  br label %61

61:                                               ; preds = %41, %36
  store i32 0, ptr %2, align 4
  store i32 1, ptr %5, align 4
  br label %62

62:                                               ; preds = %61, %29, %15
  call void @llvm.lifetime.end.p0(i64 8, ptr %4) #11
  %63 = load i32, ptr %2, align 4
  ret i32 %63
}