; Function Attrs: nofree nounwind uwtable
define internal fastcc range(i32 0, 3) i32 @tng_input_file_init(ptr noundef captures(none) %0) unnamed_addr #10 {
  %2 = getelementptr inbounds nuw i8, ptr %0, i64 8
  %3 = load ptr, ptr %2, align 8, !tbaa !137
  %.not = icmp eq ptr %3, null
  br i1 %.not, label %4, label %15

4:                                                ; preds = %1
  %5 = load ptr, ptr %0, align 8, !tbaa !139
  %.not14 = icmp eq ptr %5, null
  br i1 %.not14, label %6, label %9

6:                                                ; preds = %4
  %7 = load ptr, ptr @stderr, align 8, !tbaa !14
  %8 = tail call i32 (ptr, ptr, ...) @fprintf(ptr noundef %7, ptr noundef nonnull @.str.54, ptr noundef nonnull @.str.1, i32 noundef 875) #29
  br label %27

9:                                                ; preds = %4
  %10 = tail call noalias ptr @fopen64(ptr noundef nonnull %5, ptr noundef nonnull @.str.55)
  store ptr %10, ptr %2, align 8, !tbaa !137
  %.not15 = icmp eq ptr %10, null
  br i1 %.not15, label %11, label %15

11:                                               ; preds = %9
  %12 = load ptr, ptr @stderr, align 8, !tbaa !14
  %13 = load ptr, ptr %0, align 8, !tbaa !139
  %14 = tail call i32 (ptr, ptr, ...) @fprintf(ptr noundef %12, ptr noundef nonnull @.str.13, ptr noundef %13, ptr noundef nonnull @.str.1, i32 noundef 882) #29
  br label %27

15:                                               ; preds = %9, %1
  %16 = phi ptr [ %10, %9 ], [ %3, %1 ]
  %17 = getelementptr inbounds nuw i8, ptr %0, i64 16
  %18 = load i64, ptr %17, align 8, !tbaa !191
  %.not16 = icmp eq i64 %18, 0
  br i1 %.not16, label %19, label %27

19:                                               ; preds = %15
  %20 = tail call i64 @ftello64(ptr noundef nonnull %16)
  %21 = load ptr, ptr %2, align 8, !tbaa !137
  %22 = tail call i32 @fseeko64(ptr noundef %21, i64 noundef 0, i32 noundef 2)
  %23 = load ptr, ptr %2, align 8, !tbaa !137
  %24 = tail call i64 @ftello64(ptr noundef %23)
  store i64 %24, ptr %17, align 8, !tbaa !191
  %25 = load ptr, ptr %2, align 8, !tbaa !137
  %26 = tail call i32 @fseeko64(ptr noundef %25, i64 noundef %20, i32 noundef 0)
  br label %27

27:                                               ; preds = %15, %19, %11, %6
  %.0 = phi i32 [ 2, %11 ], [ 2, %6 ], [ 0, %19 ], [ 0, %15 ]
  ret i32 %.0
}